; Function Attrs: mustprogress uwtable
define void @_ZN6casadi5Conic15get_sparsity_inEx(ptr dead_on_unwind noalias writable sret(%"class.casadi::Sparsity") align 8 %0, ptr noundef nonnull align 8 dereferenceable(1520) %1, i64 noundef %2) unnamed_addr #4 align 2 {
  %4 = trunc i64 %2 to i32
  switch i32 %4, label %25 [
    i32 7, label %5
    i32 1, label %5
    i32 5, label %5
    i32 6, label %5
    i32 8, label %5
    i32 10, label %9
    i32 11, label %12
    i32 3, label %15
    i32 4, label %15
    i32 9, label %15
    i32 2, label %19
    i32 0, label %22
  ]

5:                                                ; preds = %3, %3, %3, %3, %3
  %6 = load ptr, ptr %1, align 8, !tbaa !29
  %7 = getelementptr inbounds nuw i8, ptr %6, i64 792
  %8 = load ptr, ptr %7, align 8
  tail call void %8(ptr dead_on_unwind writable sret(%"class.casadi::Sparsity") align 8 %0, ptr noundef nonnull align 8 dereferenceable(1520) %1, i64 noundef 0)
  br label %26

9:                                                ; preds = %3
  %10 = getelementptr inbounds nuw i8, ptr %1, i64 1480
  %11 = load ptr, ptr %10, align 8, !tbaa !156
  store ptr %11, ptr %0, align 8, !tbaa !156
  tail call void @_ZN6casadi13GenericSharedINS_12SharedObjectENS_20SharedObjectInternalEE8count_upEv(ptr noundef nonnull align 8 dereferenceable(8) %0)
  br label %26

12:                                               ; preds = %3
  %13 = getelementptr inbounds nuw i8, ptr %1, i64 1488
  %14 = load ptr, ptr %13, align 8, !tbaa !156
  store ptr %14, ptr %0, align 8, !tbaa !156
  tail call void @_ZN6casadi13GenericSharedINS_12SharedObjectENS_20SharedObjectInternalEE8count_upEv(ptr noundef nonnull align 8 dereferenceable(8) %0)
  br label %26

15:                                               ; preds = %3, %3, %3
  %16 = load ptr, ptr %1, align 8, !tbaa !29
  %17 = getelementptr inbounds nuw i8, ptr %16, i64 792
  %18 = load ptr, ptr %17, align 8
  tail call void %18(ptr dead_on_unwind writable sret(%"class.casadi::Sparsity") align 8 %0, ptr noundef nonnull align 8 dereferenceable(1520) %1, i64 noundef 2)
  br label %26

19:                                               ; preds = %3
  %20 = getelementptr inbounds nuw i8, ptr %1, i64 1472
  %21 = load ptr, ptr %20, align 8, !tbaa !156
  store ptr %21, ptr %0, align 8, !tbaa !156
  tail call void @_ZN6casadi13GenericSharedINS_12SharedObjectENS_20SharedObjectInternalEE8count_upEv(ptr noundef nonnull align 8 dereferenceable(8) %0)
  br label %26

22:                                               ; preds = %3
  %23 = getelementptr inbounds nuw i8, ptr %1, i64 1464
  %24 = load ptr, ptr %23, align 8, !tbaa !156
  store ptr %24, ptr %0, align 8, !tbaa !156
  tail call void @_ZN6casadi13GenericSharedINS_12SharedObjectENS_20SharedObjectInternalEE8count_upEv(ptr noundef nonnull align 8 dereferenceable(8) %0)
  br label %26

25:                                               ; preds = %3
  tail call void @_ZN6casadi8SparsityC1Ex(ptr noundef nonnull align 8 dereferenceable(8) %0, i64 noundef 0)
  br label %26

26:                                               ; preds = %25, %22, %19, %15, %12, %9, %5
  ret void
}